(dp0
S'nextId'
p1
I11
sS'data'
p2
(lp3
(dp4
S'priority'
p5
I5
sS'completed'
p6
I00
sS'todo'
p7
S'Test application'
p8
sS'id'
p9
I1
sa(dp10
g5
I3
sg6
I01
sg7
S'Test product'
p11
sg9
I2
sa(dp12
g5
I2
sg6
I00
sg7
S'Learn python'
p13
sg9
I3
sa(dp14
g5
I1
sg6
I01
sg7
S'Nothing Here'
p15
sg9
I4
sa(dp16
Vpriority
p17
I1
sVcompleted
p18
I01
sVtodo
p19
VJust another one
p20
sS'id'
p21
I6
sa(dp22
Vpriority
p23
I1
sVcompleted
p24
I01
sVtodo
p25
VJust another one
p26
sS'id'
p27
I8
sa(dp28
Vpriority
p29
I1
sVcompleted
p30
I00
sVtodo
p31
Vhit the gym
p32
sS'id'
p33
I9
sa(dp34
Vpriority
p35
I1
sVcompleted
p36
I00
sVtodo
p37
Vhit the park
p38
sS'id'
p39
I10
sas.